target datalayout = "e-m:e-p270:32:32-p271:32:32-p272:64:64-i64:64-i128:128-f80:128-n8:16:32:64-S128"
target triple = "x86_64-pc-linux-gnu"

%struct.cmsysProcess_s = type { ptr, i32, [3 x i32], [3 x i32], i32, [1024 x i8], ptr, i32, double, ptr, i32, i32, i32, i32, i32, %struct.kwsysProcessTime_s, %struct.kwsysProcessTime_s, i32, i32, %struct.fd_set, i32, i32, i32, [1025 x i8], ptr, ptr, ptr, ptr, ptr, i32, i32, i32, [2 x i32], [2 x i32], [2 x i32], i32, ptr }
%struct.kwsysProcessTime_s = type { i64, i64 }
%struct.fd_set = type { [16 x i64] }

; Function Attrs: nounwind uwtable
define dso_local i32 @cmsysProcess_SetWorkingDirectory(ptr noundef %0, ptr noundef %1) #0 {
  %3 = alloca i32, align 4
  %4 = alloca ptr, align 8
  %5 = alloca ptr, align 8
  store ptr %0, ptr %4, align 8, !tbaa !4
  store ptr %1, ptr %5, align 8, !tbaa !42
  %6 = load ptr, ptr %4, align 8, !tbaa !4
  %7 = icmp ne ptr %6, null
  br i1 %7, label %9, label %8

8:                                                ; preds = %2
  store i32 0, ptr %3, align 4
  br label %58

9:                                                ; preds = %2
  %10 = load ptr, ptr %4, align 8, !tbaa !4
  %11 = getelementptr inbounds nuw %struct.cmsysProcess_s, ptr %10, i32 0, i32 9
  %12 = load ptr, ptr %11, align 8, !tbaa !45
  %13 = load ptr, ptr %5, align 8, !tbaa !42
  %14 = icmp eq ptr %12, %13
  br i1 %14, label %15, label %16

15:                                               ; preds = %9
  store i32 1, ptr %3, align 4
  br label %58

16:                                               ; preds = %9
  %17 = load ptr, ptr %4, align 8, !tbaa !4
  %18 = getelementptr inbounds nuw %struct.cmsysProcess_s, ptr %17, i32 0, i32 9
  %19 = load ptr, ptr %18, align 8, !tbaa !45
  %20 = icmp ne ptr %19, null
  br i1 %20, label %21, label %32

21:                                               ; preds = %16
  %22 = load ptr, ptr %5, align 8, !tbaa !42
  %23 = icmp ne ptr %22, null
  br i1 %23, label %24, label %32

24:                                               ; preds = %21
  %25 = load ptr, ptr %4, align 8, !tbaa !4
  %26 = getelementptr inbounds nuw %struct.cmsysProcess_s, ptr %25, i32 0, i32 9
  %27 = load ptr, ptr %26, align 8, !tbaa !45
  %28 = load ptr, ptr %5, align 8, !tbaa !42
  %29 = call i32 @strcmp(ptr noundef %27, ptr noundef %28) #13
  %30 = icmp eq i32 %29, 0
  br i1 %30, label %31, label %32

31:                                               ; preds = %24
  store i32 1, ptr %3, align 4
  br label %58

32:                                               ; preds = %24, %21, %16
  %33 = load ptr, ptr %4, align 8, !tbaa !4
  %34 = getelementptr inbounds nuw %struct.cmsysProcess_s, ptr %33, i32 0, i32 9
  %35 = load ptr, ptr %34, align 8, !tbaa !45
  %36 = icmp ne ptr %35, null
  br i1 %36, label %37, label %43

37:                                               ; preds = %32
  %38 = load ptr, ptr %4, align 8, !tbaa !4
  %39 = getelementptr inbounds nuw %struct.cmsysProcess_s, ptr %38, i32 0, i32 9
  %40 = load ptr, ptr %39, align 8, !tbaa !45
  call void @free(ptr noundef %40) #11
  %41 = load ptr, ptr %4, align 8, !tbaa !4
  %42 = getelementptr inbounds nuw %struct.cmsysProcess_s, ptr %41, i32 0, i32 9
  store ptr null, ptr %42, align 8, !tbaa !45
  br label %43

43:                                               ; preds = %37, %32
  %44 = load ptr, ptr %5, align 8, !tbaa !42
  %45 = icmp ne ptr %44, null
  br i1 %45, label %46, label %57

46:                                               ; preds = %43
  %47 = load ptr, ptr %5, align 8, !tbaa !42
  %48 = call noalias ptr @strdup(ptr noundef %47) #11
  %49 = load ptr, ptr %4, align 8, !tbaa !4
  %50 = getelementptr inbounds nuw %struct.cmsysProcess_s, ptr %49, i32 0, i32 9
  store ptr %48, ptr %50, align 8, !tbaa !45
  %51 = load ptr, ptr %4, align 8, !tbaa !4
  %52 = getelementptr inbounds nuw %struct.cmsysProcess_s, ptr %51, i32 0, i32 9
  %53 = load ptr, ptr %52, align 8, !tbaa !45
  %54 = icmp ne ptr %53, null
  br i1 %54, label %56, label %55

55:                                               ; preds = %46
  store i32 0, ptr %3, align 4
  br label %58

56:                                               ; preds = %46
  br label %57

57:                                               ; preds = %56, %43
  store i32 1, ptr %3, align 4
  br label %58

58:                                               ; preds = %57, %55, %31, %15, %8
  %59 = load i32, ptr %3, align 4
  ret i32 %59
}