; Function Attrs: mustprogress nounwind willreturn uwtable
define dso_local range(i32 0, 2) i32 @cmsysProcess_SetWorkingDirectory(ptr noundef %0, ptr noundef readonly %1) local_unnamed_addr #5 {
  %.not = icmp eq ptr %0, null
  br i1 %.not, label %18, label %3

3:                                                ; preds = %2
  %4 = getelementptr inbounds nuw i8, ptr %0, i64 1088
  %5 = load ptr, ptr %4, align 8, !tbaa !30
  %6 = icmp eq ptr %5, %1
  br i1 %6, label %18, label %7

7:                                                ; preds = %3
  %8 = icmp ne ptr %5, null
  %9 = icmp ne ptr %1, null
  %or.cond = and i1 %9, %8
  br i1 %or.cond, label %10, label %13

10:                                               ; preds = %7
  %11 = tail call i32 @strcmp(ptr noundef nonnull dereferenceable(1) %5, ptr noundef nonnull dereferenceable(1) %1) #26
  %12 = icmp eq i32 %11, 0
  br i1 %12, label %18, label %.thread

13:                                               ; preds = %7
  %.not19 = icmp eq ptr %5, null
  br i1 %.not19, label %14, label %.thread

.thread:                                          ; preds = %10, %13
  tail call void @free(ptr noundef nonnull %5) #25
  store ptr null, ptr %4, align 8, !tbaa !30
  br label %14

14:                                               ; preds = %.thread, %13
  br i1 %9, label %15, label %17

15:                                               ; preds = %14
  %16 = tail call noalias ptr @strdup(ptr noundef nonnull %1) #25
  store ptr %16, ptr %4, align 8, !tbaa !30
  %.not20 = icmp eq ptr %16, null
  br i1 %.not20, label %18, label %17

17:                                               ; preds = %15, %14
  br label %18

18:                                               ; preds = %15, %10, %3, %2, %17
  %.0 = phi i32 [ 1, %17 ], [ 0, %2 ], [ 1, %3 ], [ 1, %10 ], [ 0, %15 ]
  ret i32 %.0
}